	.file	"programme"
	.section	.rodata.cst8,"aM",@progbits,8
	.p2align	3, 0x0
.LCPI0_0:
	.quad	0x3ff0000000000000
.LCPI0_1:
	.quad	0x4000000000000000
	.text
	.globl	"est un nombre premier"
	.p2align	4
	.type	"est un nombre premier",@function
"est un nombre premier":
	.cfi_startproc
	pushq	%rbp
	.cfi_def_cfa_offset 16
	.cfi_offset %rbp, -16
	movq	%rsp, %rbp
	.cfi_def_cfa_register %rbp
	subq	$16, %rsp
	vmovsd	%xmm0, -8(%rbp)
	jmp	.LBB0_1
.LBB0_1:
	vmovsd	-8(%rbp), %xmm0
	movabsq	$fmt_d, %rdi
	movb	$1, %al
	callq	printf@PLT
	vmovsd	-8(%rbp), %xmm0
	vpxor	%xmm1, %xmm1, %xmm1
	vucomisd	%xmm1, %xmm0
	sete	%al
	setnp	%cl
	andb	%cl, %al
	vmovsd	.LCPI0_0(%rip), %xmm1
	vucomisd	%xmm1, %xmm0
	sete	%cl
	setnp	%dl
	andb	%dl, %cl
	orb	%cl, %al
	testb	$1, %al
	jne	.LBB0_2
	jmp	.LBB0_3
.LBB0_2:
	xorl	%eax, %eax
	movq	%rbp, %rsp
	popq	%rbp
	.cfi_def_cfa %rsp, 8
	retq
.LBB0_3:
	.cfi_def_cfa %rbp, 16
	movq	%rsp, %rax
	addq	$-16, %rax
	movq	%rax, -16(%rbp)
	movq	%rax, %rsp
	vmovsd	.LCPI0_1(%rip), %xmm0
	vmovsd	%xmm0, (%rax)
	jmp	.LBB0_5
.LBB0_5:
	movq	-16(%rbp), %rax
	vmovsd	(%rax), %xmm0
	movabsq	$fmt_d, %rdi
	movb	$1, %al
	callq	printf@PLT
	vmovsd	-8(%rbp), %xmm1
	movq	-16(%rbp), %rax
	vsqrtsd	%xmm1, %xmm0, %xmm1
	vmovsd	(%rax), %xmm0
	vucomisd	%xmm1, %xmm0
	jbe	.LBB0_7
	movb	$1, %al
	movq	%rbp, %rsp
	popq	%rbp
	.cfi_def_cfa %rsp, 8
	retq
.LBB0_7:
	.cfi_def_cfa %rbp, 16
	jmp	.LBB0_8
.LBB0_8:
	vmovsd	-8(%rbp), %xmm0
	movq	-16(%rbp), %rax
	vmovsd	(%rax), %xmm1
	callq	fmod@PLT
	vpxor	%xmm1, %xmm1, %xmm1
	vucomisd	%xmm1, %xmm0
	je	.LBB0_10
	movq	-16(%rbp), %rax
	vmovsd	.LCPI0_0(%rip), %xmm0
	vaddsd	(%rax), %xmm0, %xmm0
	vmovsd	%xmm0, (%rax)
	jmp	.LBB0_5
.LBB0_10:
	xorl	%eax, %eax
	movq	%rbp, %rsp
	popq	%rbp
	.cfi_def_cfa %rsp, 8
	retq
.Lfunc_end0:
	.size	"est un nombre premier", .Lfunc_end0-"est un nombre premier"
	.cfi_endproc

	.globl	main
	.p2align	4
	.type	main,@function
main:
	.cfi_startproc
	pushq	%rax
	.cfi_def_cfa_offset 16
	movabsq	$.Lmessage, %rdi
	callq	say@PLT
	movabsq	$.Lvar_name, %rdi
	callq	read_double@PLT
	vmovsd	%xmm0, (%rsp)
	vmovsd	(%rsp), %xmm0
	callq	"est un nombre premier"@PLT
	movzbl	%al, %edi
	xorl	%eax, %eax
	callq	print_bool@PLT
	xorl	%eax, %eax
	popq	%rcx
	.cfi_def_cfa_offset 8
	retq
.Lfunc_end1:
	.size	main, .Lfunc_end1-main
	.cfi_endproc

	.type	fmt_b,@object
	.section	.rodata.str1.1,"aMS",@progbits,1
fmt_b:
	.asciz	"%d\n"
	.size	fmt_b, 4

	.type	fmt_d,@object
fmt_d:
	.asciz	"%.2f\n"
	.size	fmt_d, 6

	.type	fmt_s,@object
fmt_s:
	.asciz	"%s\n"
	.size	fmt_s, 4

	.type	.Lmessage,@object
.Lmessage:
	.asciz	"D\303\251terminer si un nombre est premier!"
	.size	.Lmessage, 38

	.type	.Lvar_name,@object
.Lvar_name:
	.asciz	"i"
	.size	.Lvar_name, 2

	.section	".note.GNU-stack","",@progbits
